; ModuleID = 'source-C-CXX/36/1340.c'
source_filename = "source-C-CXX/36/1340.c"
target datalayout = "e-m:e-p270:32:32-p271:32:32-p272:64:64-i64:64-f80:128-n8:16:32:64-S128"
target triple = "x86_64-pc-linux-gnu"

@.str = private unnamed_addr constant [4 x i8] c"%c\0A\00", align 1
@str = private unnamed_addr constant [3 x i8] c"no\00", align 1

; Function Attrs: nounwind sspstrong uwtable
define dso_local i32 @main() local_unnamed_addr #0 {
  %1 = alloca [100 x i8], align 16
  %2 = alloca [100 x i8], align 16
  %3 = getelementptr inbounds [100 x i8], [100 x i8]* %1, i64 0, i64 0
  call void @llvm.lifetime.start.p0i8(i64 100, i8* nonnull %3) #6
  %4 = getelementptr inbounds [100 x i8], [100 x i8]* %2, i64 0, i64 0
  call void @llvm.lifetime.start.p0i8(i64 100, i8* nonnull %4) #6
  %5 = call i32 (i8*, ...) bitcast (i32 (...)* @gets to i32 (i8*, ...)*)(i8* nonnull %3) #6
  %6 = call i64 @strtol(i8* nocapture nonnull %3, i8** null, i32 10) #6
  %7 = trunc i64 %6 to i32
  %8 = icmp sgt i32 %7, 0
  br i1 %8, label %9, label %45

9:                                                ; preds = %0, %41
  %10 = phi i32 [ %43, %41 ], [ 0, %0 ]
  %11 = phi i32 [ %42, %41 ], [ undef, %0 ]
  %12 = call i32 (i8*, ...) bitcast (i32 (...)* @gets to i32 (i8*, ...)*)(i8* nonnull %4) #6
  %13 = load i8, i8* %4, align 16
  %14 = icmp eq i8 %13, 0
  br i1 %14, label %37, label %15

15:                                               ; preds = %9, %32
  %16 = phi i64 [ %33, %32 ], [ 0, %9 ]
  %17 = phi i8 [ %35, %32 ], [ %13, %9 ]
  br label %22

18:                                               ; preds = %22
  %19 = getelementptr inbounds [100 x i8], [100 x i8]* %2, i64 0, i64 %28
  %20 = load i8, i8* %19, align 1, !tbaa !5
  %21 = icmp eq i8 %20, 0
  br i1 %21, label %29, label %22, !llvm.loop !8

22:                                               ; preds = %15, %18
  %23 = phi i64 [ 0, %15 ], [ %28, %18 ]
  %24 = phi i8 [ %13, %15 ], [ %20, %18 ]
  %25 = icmp ne i64 %23, %16
  %26 = icmp eq i8 %24, %17
  %27 = select i1 %25, i1 %26, i1 false
  %28 = add nuw i64 %23, 1
  br i1 %27, label %32, label %18

29:                                               ; preds = %18
  %30 = sext i8 %17 to i32
  %31 = call i32 (i8*, ...) @printf(i8* nonnull dereferenceable(1) getelementptr inbounds ([4 x i8], [4 x i8]* @.str, i64 0, i64 0), i32 %30)
  br label %41

32:                                               ; preds = %22
  %33 = add nuw i64 %16, 1
  %34 = getelementptr inbounds [100 x i8], [100 x i8]* %2, i64 0, i64 %33
  %35 = load i8, i8* %34, align 1, !tbaa !5
  %36 = icmp eq i8 %35, 0
  br i1 %36, label %39, label %15, !llvm.loop !10

37:                                               ; preds = %9
  %38 = icmp eq i32 %11, 0
  br i1 %38, label %39, label %41

39:                                               ; preds = %32, %37
  %40 = call i32 @puts(i8* nonnull dereferenceable(1) getelementptr inbounds ([3 x i8], [3 x i8]* @str, i64 0, i64 0))
  br label %41

41:                                               ; preds = %29, %37, %39
  %42 = phi i32 [ 1, %29 ], [ %11, %37 ], [ 0, %39 ]
  %43 = add nuw nsw i32 %10, 1
  %44 = icmp eq i32 %43, %7
  br i1 %44, label %45, label %9, !llvm.loop !11

45:                                               ; preds = %41, %0
  call void @llvm.lifetime.end.p0i8(i64 100, i8* nonnull %4) #6
  call void @llvm.lifetime.end.p0i8(i64 100, i8* nonnull %3) #6
  ret i32 0
}

; Function Attrs: argmemonly mustprogress nofree nosync nounwind willreturn
declare void @llvm.lifetime.start.p0i8(i64 immarg, i8* nocapture) #1

declare i32 @gets(...) local_unnamed_addr #2

; Function Attrs: nofree nounwind
declare noundef i32 @printf(i8* nocapture noundef readonly, ...) local_unnamed_addr #3

; Function Attrs: argmemonly mustprogress nofree nosync nounwind willreturn
declare void @llvm.lifetime.end.p0i8(i64 immarg, i8* nocapture) #1

; Function Attrs: mustprogress nofree nounwind willreturn
declare i64 @strtol(i8* readonly, i8** nocapture, i32) local_unnamed_addr #4

; Function Attrs: nofree nounwind
declare noundef i32 @puts(i8* nocapture noundef readonly) local_unnamed_addr #5


!llvm.module.flags = !{!0, !1, !2, !3}
!llvm.ident = !{!4}

!0 = !{i32 1, !"wchar_size", i32 4}
!1 = !{i32 7, !"PIC Level", i32 2}
!2 = !{i32 7, !"PIE Level", i32 2}
!3 = !{i32 7, !"uwtable", i32 1}
!4 = !{!"clang version 13.0.0"}
!5 = !{!6, !6, i64 0}
!6 = !{!"omnipotent char", !7, i64 0}
!7 = !{!"Simple C/C++ TBAA"}
!8 = distinct !{!8, !9}
!9 = !{!"llvm.loop.mustprogress"}
!10 = distinct !{!10, !9}
!11 = distinct !{!11, !9}
